target datalayout = "e-m:e-p270:32:32-p271:32:32-p272:64:64-i64:64-i128:128-f80:128-n8:16:32:64-S128"
target triple = "x86_64-pc-linux-gnu"

%struct.lv_color_t = type { i8, i8, i8 }

; Function Attrs: nounwind uwtable
define internal void @fill_cb(ptr noundef %0) #0 {
  %2 = alloca ptr, align 8
  %3 = alloca i32, align 4
  %4 = alloca ptr, align 8
  %5 = alloca ptr, align 8
  %6 = alloca ptr, align 8
  %7 = alloca %struct.lv_color_t, align 1
  %8 = alloca i24, align 4
  %9 = alloca ptr, align 8
  %10 = alloca %struct.lv_color_t, align 1
  %11 = alloca i24, align 4
  %12 = alloca ptr, align 8
  %13 = alloca %struct.lv_color_t, align 1
  %14 = alloca i24, align 4
  %15 = alloca ptr, align 8
  %16 = alloca %struct.lv_color_t, align 1
  %17 = alloca i24, align 4
  store ptr %0, ptr %2, align 8, !tbaa !8
  call void @llvm.lifetime.start.p0(i64 4, ptr %3) #5
  store i32 0, ptr %3, align 4, !tbaa !3
  br label %18

18:                                               ; preds = %25, %1
  %19 = load i32, ptr %3, align 4, !tbaa !3
  %20 = icmp ult i32 %19, 8
  br i1 %20, label %21, label %28

21:                                               ; preds = %18
  %22 = load ptr, ptr %2, align 8, !tbaa !8
  %23 = load i32, ptr %3, align 4, !tbaa !3
  %24 = call ptr @fill_obj_create(ptr noundef %22, i32 noundef %23, i32 noundef 0)
  br label %25

25:                                               ; preds = %21
  %26 = load i32, ptr %3, align 4, !tbaa !3
  %27 = add i32 %26, 1
  store i32 %27, ptr %3, align 4, !tbaa !3
  br label %18, !llvm.loop !15

28:                                               ; preds = %18
  store i32 0, ptr %3, align 4, !tbaa !3
  br label %29

29:                                               ; preds = %37, %28
  %30 = load i32, ptr %3, align 4, !tbaa !3
  %31 = icmp ult i32 %30, 8
  br i1 %31, label %32, label %40

32:                                               ; preds = %29
  call void @llvm.lifetime.start.p0(i64 8, ptr %4) #5
  %33 = load ptr, ptr %2, align 8, !tbaa !8
  %34 = load i32, ptr %3, align 4, !tbaa !3
  %35 = call ptr @fill_obj_create(ptr noundef %33, i32 noundef %34, i32 noundef 1)
  store ptr %35, ptr %4, align 8, !tbaa !8
  %36 = load ptr, ptr %4, align 8, !tbaa !8
  call void @lv_obj_set_style_radius(ptr noundef %36, i32 noundef 10, i32 noundef 0)
  call void @llvm.lifetime.end.p0(i64 8, ptr %4) #5
  br label %37

37:                                               ; preds = %32
  %38 = load i32, ptr %3, align 4, !tbaa !3
  %39 = add i32 %38, 1
  store i32 %39, ptr %3, align 4, !tbaa !3
  br label %29, !llvm.loop !17

40:                                               ; preds = %29
  store i32 0, ptr %3, align 4, !tbaa !3
  br label %41

41:                                               ; preds = %49, %40
  %42 = load i32, ptr %3, align 4, !tbaa !3
  %43 = icmp ult i32 %42, 8
  br i1 %43, label %44, label %52

44:                                               ; preds = %41
  call void @llvm.lifetime.start.p0(i64 8, ptr %5) #5
  %45 = load ptr, ptr %2, align 8, !tbaa !8
  %46 = load i32, ptr %3, align 4, !tbaa !3
  %47 = call ptr @fill_obj_create(ptr noundef %45, i32 noundef %46, i32 noundef 2)
  store ptr %47, ptr %5, align 8, !tbaa !8
  %48 = load ptr, ptr %5, align 8, !tbaa !8
  call void @lv_obj_set_style_radius(ptr noundef %48, i32 noundef 100, i32 noundef 0)
  call void @llvm.lifetime.end.p0(i64 8, ptr %5) #5
  br label %49

49:                                               ; preds = %44
  %50 = load i32, ptr %3, align 4, !tbaa !3
  %51 = add i32 %50, 1
  store i32 %51, ptr %3, align 4, !tbaa !3
  br label %41, !llvm.loop !18

52:                                               ; preds = %41
  store i32 0, ptr %3, align 4, !tbaa !3
  br label %53

53:                                               ; preds = %66, %52
  %54 = load i32, ptr %3, align 4, !tbaa !3
  %55 = icmp ult i32 %54, 8
  br i1 %55, label %56, label %69

56:                                               ; preds = %53
  call void @llvm.lifetime.start.p0(i64 8, ptr %6) #5
  %57 = load ptr, ptr %2, align 8, !tbaa !8
  %58 = load i32, ptr %3, align 4, !tbaa !3
  %59 = call ptr @fill_obj_create(ptr noundef %57, i32 noundef %58, i32 noundef 3)
  store ptr %59, ptr %6, align 8, !tbaa !8
  %60 = load ptr, ptr %6, align 8, !tbaa !8
  call void @lv_obj_set_style_radius(ptr noundef %60, i32 noundef 10, i32 noundef 0)
  %61 = load ptr, ptr %6, align 8, !tbaa !8
  call void @lv_obj_set_style_bg_grad_dir(ptr noundef %61, i32 noundef 2, i32 noundef 0)
  %62 = load ptr, ptr %6, align 8, !tbaa !8
  %63 = call i24 @lv_color_hex3(i32 noundef 2184)
  store i24 %63, ptr %7, align 1
  call void @llvm.memcpy.p0.p0.i64(ptr align 4 %8, ptr align 1 %7, i64 3, i1 false)
  %64 = load i24, ptr %8, align 4
  call void @lv_obj_set_style_bg_grad_color(ptr noundef %62, i24 %64, i32 noundef 0)
  %65 = load ptr, ptr %6, align 8, !tbaa !8
  call void @lv_obj_set_style_bg_grad_stop(ptr noundef %65, i32 noundef 200, i32 noundef 0)
  call void @llvm.lifetime.end.p0(i64 8, ptr %6) #5
  br label %66

66:                                               ; preds = %56
  %67 = load i32, ptr %3, align 4, !tbaa !3
  %68 = add i32 %67, 1
  store i32 %68, ptr %3, align 4, !tbaa !3
  br label %53, !llvm.loop !19

69:                                               ; preds = %53
  store i32 0, ptr %3, align 4, !tbaa !3
  br label %70

70:                                               ; preds = %83, %69
  %71 = load i32, ptr %3, align 4, !tbaa !3
  %72 = icmp ult i32 %71, 8
  br i1 %72, label %73, label %86

73:                                               ; preds = %70
  call void @llvm.lifetime.start.p0(i64 8, ptr %9) #5
  %74 = load ptr, ptr %2, align 8, !tbaa !8
  %75 = load i32, ptr %3, align 4, !tbaa !3
  %76 = call ptr @fill_obj_create(ptr noundef %74, i32 noundef %75, i32 noundef 4)
  store ptr %76, ptr %9, align 8, !tbaa !8
  %77 = load ptr, ptr %9, align 8, !tbaa !8
  call void @lv_obj_set_style_radius(ptr noundef %77, i32 noundef 10, i32 noundef 0)
  %78 = load ptr, ptr %9, align 8, !tbaa !8
  call void @lv_obj_set_style_bg_grad_dir(ptr noundef %78, i32 noundef 1, i32 noundef 0)
  %79 = load ptr, ptr %9, align 8, !tbaa !8
  %80 = call i24 @lv_color_hex3(i32 noundef 2184)
  store i24 %80, ptr %10, align 1
  call void @llvm.memcpy.p0.p0.i64(ptr align 4 %11, ptr align 1 %10, i64 3, i1 false)
  %81 = load i24, ptr %11, align 4
  call void @lv_obj_set_style_bg_grad_color(ptr noundef %79, i24 %81, i32 noundef 0)
  %82 = load ptr, ptr %9, align 8, !tbaa !8
  call void @lv_obj_set_style_bg_grad_stop(ptr noundef %82, i32 noundef 200, i32 noundef 0)
  call void @llvm.lifetime.end.p0(i64 8, ptr %9) #5
  br label %83

83:                                               ; preds = %73
  %84 = load i32, ptr %3, align 4, !tbaa !3
  %85 = add i32 %84, 1
  store i32 %85, ptr %3, align 4, !tbaa !3
  br label %70, !llvm.loop !20

86:                                               ; preds = %70
  store i32 0, ptr %3, align 4, !tbaa !3
  br label %87

87:                                               ; preds = %101, %86
  %88 = load i32, ptr %3, align 4, !tbaa !3
  %89 = icmp ult i32 %88, 8
  br i1 %89, label %90, label %104

90:                                               ; preds = %87
  call void @llvm.lifetime.start.p0(i64 8, ptr %12) #5
  %91 = load ptr, ptr %2, align 8, !tbaa !8
  %92 = load i32, ptr %3, align 4, !tbaa !3
  %93 = call ptr @fill_obj_create(ptr noundef %91, i32 noundef %92, i32 noundef 5)
  store ptr %93, ptr %12, align 8, !tbaa !8
  %94 = load ptr, ptr %12, align 8, !tbaa !8
  call void @lv_obj_set_style_radius(ptr noundef %94, i32 noundef 10, i32 noundef 0)
  %95 = load ptr, ptr %12, align 8, !tbaa !8
  call void @lv_obj_set_style_bg_grad_dir(ptr noundef %95, i32 noundef 2, i32 noundef 0)
  %96 = load ptr, ptr %12, align 8, !tbaa !8
  %97 = call i24 @lv_color_hex3(i32 noundef 2184)
  store i24 %97, ptr %13, align 1
  call void @llvm.memcpy.p0.p0.i64(ptr align 4 %14, ptr align 1 %13, i64 3, i1 false)
  %98 = load i24, ptr %14, align 4
  call void @lv_obj_set_style_bg_grad_color(ptr noundef %96, i24 %98, i32 noundef 0)
  %99 = load ptr, ptr %12, align 8, !tbaa !8
  call void @lv_obj_set_style_bg_grad_opa(ptr noundef %99, i8 noundef zeroext 0, i32 noundef 0)
  %100 = load ptr, ptr %12, align 8, !tbaa !8
  call void @lv_obj_set_style_bg_grad_stop(ptr noundef %100, i32 noundef 200, i32 noundef 0)
  call void @llvm.lifetime.end.p0(i64 8, ptr %12) #5
  br label %101

101:                                              ; preds = %90
  %102 = load i32, ptr %3, align 4, !tbaa !3
  %103 = add i32 %102, 1
  store i32 %103, ptr %3, align 4, !tbaa !3
  br label %87, !llvm.loop !21

104:                                              ; preds = %87
  store i32 0, ptr %3, align 4, !tbaa !3
  br label %105

105:                                              ; preds = %119, %104
  %106 = load i32, ptr %3, align 4, !tbaa !3
  %107 = icmp ult i32 %106, 8
  br i1 %107, label %108, label %122

108:                                              ; preds = %105
  call void @llvm.lifetime.start.p0(i64 8, ptr %15) #5
  %109 = load ptr, ptr %2, align 8, !tbaa !8
  %110 = load i32, ptr %3, align 4, !tbaa !3
  %111 = call ptr @fill_obj_create(ptr noundef %109, i32 noundef %110, i32 noundef 6)
  store ptr %111, ptr %15, align 8, !tbaa !8
  %112 = load ptr, ptr %15, align 8, !tbaa !8
  call void @lv_obj_set_style_radius(ptr noundef %112, i32 noundef 10, i32 noundef 0)
  %113 = load ptr, ptr %15, align 8, !tbaa !8
  call void @lv_obj_set_style_bg_grad_dir(ptr noundef %113, i32 noundef 1, i32 noundef 0)
  %114 = load ptr, ptr %15, align 8, !tbaa !8
  %115 = call i24 @lv_color_hex3(i32 noundef 2184)
  store i24 %115, ptr %16, align 1
  call void @llvm.memcpy.p0.p0.i64(ptr align 4 %17, ptr align 1 %16, i64 3, i1 false)
  %116 = load i24, ptr %17, align 4
  call void @lv_obj_set_style_bg_grad_color(ptr noundef %114, i24 %116, i32 noundef 0)
  %117 = load ptr, ptr %15, align 8, !tbaa !8
  call void @lv_obj_set_style_bg_grad_opa(ptr noundef %117, i8 noundef zeroext 0, i32 noundef 0)
  %118 = load ptr, ptr %15, align 8, !tbaa !8
  call void @lv_obj_set_style_bg_grad_stop(ptr noundef %118, i32 noundef 200, i32 noundef 0)
  call void @llvm.lifetime.end.p0(i64 8, ptr %15) #5
  br label %119

119:                                              ; preds = %108
  %120 = load i32, ptr %3, align 4, !tbaa !3
  %121 = add i32 %120, 1
  store i32 %121, ptr %3, align 4, !tbaa !3
  br label %105, !llvm.loop !22

122:                                              ; preds = %105
  call void @llvm.lifetime.end.p0(i64 4, ptr %3) #5
  ret void
}