; Function Attrs: nounwind uwtable
define internal void @fill_cb(ptr noundef %0) #0 {
  br label %2

2:                                                ; preds = %1, %2
  %.059 = phi i32 [ 0, %1 ], [ %4, %2 ]
  %3 = tail call fastcc ptr @fill_obj_create(ptr noundef %0, i32 noundef %.059, i32 noundef 0)
  %4 = add nuw nsw i32 %.059, 1
  %exitcond.not = icmp eq i32 %4, 8
  br i1 %exitcond.not, label %.preheader58, label %2, !llvm.loop !11

.preheader58:                                     ; preds = %2, %.preheader58
  %.160 = phi i32 [ %6, %.preheader58 ], [ 0, %2 ]
  %5 = tail call fastcc ptr @fill_obj_create(ptr noundef %0, i32 noundef %.160, i32 noundef 1)
  tail call void @lv_obj_set_style_radius(ptr noundef %5, i32 noundef 10, i32 noundef 0) #6
  %6 = add nuw nsw i32 %.160, 1
  %exitcond66.not = icmp eq i32 %6, 8
  br i1 %exitcond66.not, label %.preheader57, label %.preheader58, !llvm.loop !13

.preheader57:                                     ; preds = %.preheader58, %.preheader57
  %.261 = phi i32 [ %8, %.preheader57 ], [ 0, %.preheader58 ]
  %7 = tail call fastcc ptr @fill_obj_create(ptr noundef %0, i32 noundef %.261, i32 noundef 2)
  tail call void @lv_obj_set_style_radius(ptr noundef %7, i32 noundef 100, i32 noundef 0) #6
  %8 = add nuw nsw i32 %.261, 1
  %exitcond67.not = icmp eq i32 %8, 8
  br i1 %exitcond67.not, label %.preheader56, label %.preheader57, !llvm.loop !14

.preheader56:                                     ; preds = %.preheader57, %.preheader56
  %.362 = phi i32 [ %11, %.preheader56 ], [ 0, %.preheader57 ]
  %9 = tail call fastcc ptr @fill_obj_create(ptr noundef %0, i32 noundef %.362, i32 noundef 3)
  tail call void @lv_obj_set_style_radius(ptr noundef %9, i32 noundef 10, i32 noundef 0) #6
  tail call void @lv_obj_set_style_bg_grad_dir(ptr noundef %9, i32 noundef 2, i32 noundef 0) #6
  %10 = tail call i24 @lv_color_hex3(i32 noundef 2184) #6
  tail call void @lv_obj_set_style_bg_grad_color(ptr noundef %9, i24 %10, i32 noundef 0) #6
  tail call void @lv_obj_set_style_bg_grad_stop(ptr noundef %9, i32 noundef 200, i32 noundef 0) #6
  %11 = add nuw nsw i32 %.362, 1
  %exitcond68.not = icmp eq i32 %11, 8
  br i1 %exitcond68.not, label %.preheader55, label %.preheader56, !llvm.loop !15

.preheader55:                                     ; preds = %.preheader56, %.preheader55
  %.463 = phi i32 [ %14, %.preheader55 ], [ 0, %.preheader56 ]
  %12 = tail call fastcc ptr @fill_obj_create(ptr noundef %0, i32 noundef %.463, i32 noundef 4)
  tail call void @lv_obj_set_style_radius(ptr noundef %12, i32 noundef 10, i32 noundef 0) #6
  tail call void @lv_obj_set_style_bg_grad_dir(ptr noundef %12, i32 noundef 1, i32 noundef 0) #6
  %13 = tail call i24 @lv_color_hex3(i32 noundef 2184) #6
  tail call void @lv_obj_set_style_bg_grad_color(ptr noundef %12, i24 %13, i32 noundef 0) #6
  tail call void @lv_obj_set_style_bg_grad_stop(ptr noundef %12, i32 noundef 200, i32 noundef 0) #6
  %14 = add nuw nsw i32 %.463, 1
  %exitcond69.not = icmp eq i32 %14, 8
  br i1 %exitcond69.not, label %.preheader54, label %.preheader55, !llvm.loop !16

.preheader54:                                     ; preds = %.preheader55, %.preheader54
  %.564 = phi i32 [ %17, %.preheader54 ], [ 0, %.preheader55 ]
  %15 = tail call fastcc ptr @fill_obj_create(ptr noundef %0, i32 noundef %.564, i32 noundef 5)
  tail call void @lv_obj_set_style_radius(ptr noundef %15, i32 noundef 10, i32 noundef 0) #6
  tail call void @lv_obj_set_style_bg_grad_dir(ptr noundef %15, i32 noundef 2, i32 noundef 0) #6
  %16 = tail call i24 @lv_color_hex3(i32 noundef 2184) #6
  tail call void @lv_obj_set_style_bg_grad_color(ptr noundef %15, i24 %16, i32 noundef 0) #6
  tail call void @lv_obj_set_style_bg_grad_opa(ptr noundef %15, i8 noundef zeroext 0, i32 noundef 0) #6
  tail call void @lv_obj_set_style_bg_grad_stop(ptr noundef %15, i32 noundef 200, i32 noundef 0) #6
  %17 = add nuw nsw i32 %.564, 1
  %exitcond70.not = icmp eq i32 %17, 8
  br i1 %exitcond70.not, label %.preheader, label %.preheader54, !llvm.loop !17

.preheader:                                       ; preds = %.preheader54, %.preheader
  %.665 = phi i32 [ %20, %.preheader ], [ 0, %.preheader54 ]
  %18 = tail call fastcc ptr @fill_obj_create(ptr noundef %0, i32 noundef %.665, i32 noundef 6)
  tail call void @lv_obj_set_style_radius(ptr noundef %18, i32 noundef 10, i32 noundef 0) #6
  tail call void @lv_obj_set_style_bg_grad_dir(ptr noundef %18, i32 noundef 1, i32 noundef 0) #6
  %19 = tail call i24 @lv_color_hex3(i32 noundef 2184) #6
  tail call void @lv_obj_set_style_bg_grad_color(ptr noundef %18, i24 %19, i32 noundef 0) #6
  tail call void @lv_obj_set_style_bg_grad_opa(ptr noundef %18, i8 noundef zeroext 0, i32 noundef 0) #6
  tail call void @lv_obj_set_style_bg_grad_stop(ptr noundef %18, i32 noundef 200, i32 noundef 0) #6
  %20 = add nuw nsw i32 %.665, 1
  %exitcond71.not = icmp eq i32 %20, 8
  br i1 %exitcond71.not, label %21, label %.preheader, !llvm.loop !18

21:                                               ; preds = %.preheader
  ret void
}